target datalayout = "e-m:e-p270:32:32-p271:32:32-p272:64:64-i64:64-i128:128-f80:128-n8:16:32:64-S128"
target triple = "x86_64-pc-linux-gnu"

%struct.ATempoContext = type { ptr, ptr, i32, i32, i32, i32, [2 x i64], i64, i32, i32, i32, i32, ptr, double, [2 x i64], [2 x %struct.AudioFragment], i64, i32, ptr, ptr, ptr, ptr, ptr, ptr, ptr, ptr, ptr, i64, i64 }
%struct.AudioFragment = type { [2 x i64], ptr, i32, ptr, ptr }

; Function Attrs: nounwind uwtable
define internal void @yae_clear(ptr noundef %0) #1 {
  %2 = alloca ptr, align 8
  store ptr %0, ptr %2, align 8, !tbaa !22
  %3 = load ptr, ptr %2, align 8, !tbaa !22
  %4 = getelementptr inbounds nuw %struct.ATempoContext, ptr %3, i32 0, i32 3
  store i32 0, ptr %4, align 4, !tbaa !81
  %5 = load ptr, ptr %2, align 8, !tbaa !22
  %6 = getelementptr inbounds nuw %struct.ATempoContext, ptr %5, i32 0, i32 4
  store i32 0, ptr %6, align 8, !tbaa !82
  %7 = load ptr, ptr %2, align 8, !tbaa !22
  %8 = getelementptr inbounds nuw %struct.ATempoContext, ptr %7, i32 0, i32 5
  store i32 0, ptr %8, align 4, !tbaa !83
  %9 = load ptr, ptr %2, align 8, !tbaa !22
  %10 = getelementptr inbounds nuw %struct.ATempoContext, ptr %9, i32 0, i32 16
  store i64 0, ptr %10, align 8, !tbaa !70
  %11 = load ptr, ptr %2, align 8, !tbaa !22
  %12 = getelementptr inbounds nuw %struct.ATempoContext, ptr %11, i32 0, i32 17
  store i32 0, ptr %12, align 8, !tbaa !31
  %13 = load ptr, ptr %2, align 8, !tbaa !22
  %14 = getelementptr inbounds nuw %struct.ATempoContext, ptr %13, i32 0, i32 7
  store i64 -9223372036854775808, ptr %14, align 8, !tbaa !53
  %15 = load ptr, ptr %2, align 8, !tbaa !22
  %16 = getelementptr inbounds nuw %struct.ATempoContext, ptr %15, i32 0, i32 6
  %17 = getelementptr inbounds [2 x i64], ptr %16, i64 0, i64 0
  store i64 0, ptr %17, align 8, !tbaa !77
  %18 = load ptr, ptr %2, align 8, !tbaa !22
  %19 = getelementptr inbounds nuw %struct.ATempoContext, ptr %18, i32 0, i32 6
  %20 = getelementptr inbounds [2 x i64], ptr %19, i64 0, i64 1
  store i64 0, ptr %20, align 8, !tbaa !77
  %21 = load ptr, ptr %2, align 8, !tbaa !22
  %22 = getelementptr inbounds nuw %struct.ATempoContext, ptr %21, i32 0, i32 14
  %23 = getelementptr inbounds [2 x i64], ptr %22, i64 0, i64 0
  store i64 0, ptr %23, align 8, !tbaa !77
  %24 = load ptr, ptr %2, align 8, !tbaa !22
  %25 = getelementptr inbounds nuw %struct.ATempoContext, ptr %24, i32 0, i32 14
  %26 = getelementptr inbounds [2 x i64], ptr %25, i64 0, i64 1
  store i64 0, ptr %26, align 8, !tbaa !77
  %27 = load ptr, ptr %2, align 8, !tbaa !22
  %28 = getelementptr inbounds nuw %struct.ATempoContext, ptr %27, i32 0, i32 15
  %29 = getelementptr inbounds [2 x %struct.AudioFragment], ptr %28, i64 0, i64 0
  %30 = getelementptr inbounds nuw %struct.AudioFragment, ptr %29, i32 0, i32 0
  %31 = getelementptr inbounds [2 x i64], ptr %30, i64 0, i64 0
  store i64 0, ptr %31, align 8, !tbaa !77
  %32 = load ptr, ptr %2, align 8, !tbaa !22
  %33 = getelementptr inbounds nuw %struct.ATempoContext, ptr %32, i32 0, i32 15
  %34 = getelementptr inbounds [2 x %struct.AudioFragment], ptr %33, i64 0, i64 0
  %35 = getelementptr inbounds nuw %struct.AudioFragment, ptr %34, i32 0, i32 0
  %36 = getelementptr inbounds [2 x i64], ptr %35, i64 0, i64 1
  store i64 0, ptr %36, align 8, !tbaa !77
  %37 = load ptr, ptr %2, align 8, !tbaa !22
  %38 = getelementptr inbounds nuw %struct.ATempoContext, ptr %37, i32 0, i32 15
  %39 = getelementptr inbounds [2 x %struct.AudioFragment], ptr %38, i64 0, i64 0
  %40 = getelementptr inbounds nuw %struct.AudioFragment, ptr %39, i32 0, i32 2
  store i32 0, ptr %40, align 8, !tbaa !79
  %41 = load ptr, ptr %2, align 8, !tbaa !22
  %42 = getelementptr inbounds nuw %struct.ATempoContext, ptr %41, i32 0, i32 15
  %43 = getelementptr inbounds [2 x %struct.AudioFragment], ptr %42, i64 0, i64 1
  %44 = getelementptr inbounds nuw %struct.AudioFragment, ptr %43, i32 0, i32 0
  %45 = getelementptr inbounds [2 x i64], ptr %44, i64 0, i64 0
  store i64 0, ptr %45, align 8, !tbaa !77
  %46 = load ptr, ptr %2, align 8, !tbaa !22
  %47 = getelementptr inbounds nuw %struct.ATempoContext, ptr %46, i32 0, i32 15
  %48 = getelementptr inbounds [2 x %struct.AudioFragment], ptr %47, i64 0, i64 1
  %49 = getelementptr inbounds nuw %struct.AudioFragment, ptr %48, i32 0, i32 0
  %50 = getelementptr inbounds [2 x i64], ptr %49, i64 0, i64 1
  store i64 0, ptr %50, align 8, !tbaa !77
  %51 = load ptr, ptr %2, align 8, !tbaa !22
  %52 = getelementptr inbounds nuw %struct.ATempoContext, ptr %51, i32 0, i32 15
  %53 = getelementptr inbounds [2 x %struct.AudioFragment], ptr %52, i64 0, i64 1
  %54 = getelementptr inbounds nuw %struct.AudioFragment, ptr %53, i32 0, i32 2
  store i32 0, ptr %54, align 8, !tbaa !79
  %55 = load ptr, ptr %2, align 8, !tbaa !22
  %56 = getelementptr inbounds nuw %struct.ATempoContext, ptr %55, i32 0, i32 11
  %57 = load i32, ptr %56, align 4, !tbaa !78
  %58 = sdiv i32 %57, 2
  %59 = sext i32 %58 to i64
  %60 = sub nsw i64 0, %59
  %61 = load ptr, ptr %2, align 8, !tbaa !22
  %62 = getelementptr inbounds nuw %struct.ATempoContext, ptr %61, i32 0, i32 15
  %63 = getelementptr inbounds [2 x %struct.AudioFragment], ptr %62, i64 0, i64 0
  %64 = getelementptr inbounds nuw %struct.AudioFragment, ptr %63, i32 0, i32 0
  %65 = getelementptr inbounds [2 x i64], ptr %64, i64 0, i64 0
  store i64 %60, ptr %65, align 8, !tbaa !77
  %66 = load ptr, ptr %2, align 8, !tbaa !22
  %67 = getelementptr inbounds nuw %struct.ATempoContext, ptr %66, i32 0, i32 11
  %68 = load i32, ptr %67, align 4, !tbaa !78
  %69 = sdiv i32 %68, 2
  %70 = sext i32 %69 to i64
  %71 = sub nsw i64 0, %70
  %72 = load ptr, ptr %2, align 8, !tbaa !22
  %73 = getelementptr inbounds nuw %struct.ATempoContext, ptr %72, i32 0, i32 15
  %74 = getelementptr inbounds [2 x %struct.AudioFragment], ptr %73, i64 0, i64 0
  %75 = getelementptr inbounds nuw %struct.AudioFragment, ptr %74, i32 0, i32 0
  %76 = getelementptr inbounds [2 x i64], ptr %75, i64 0, i64 1
  store i64 %71, ptr %76, align 8, !tbaa !77
  %77 = load ptr, ptr %2, align 8, !tbaa !22
  %78 = getelementptr inbounds nuw %struct.ATempoContext, ptr %77, i32 0, i32 24
  call void @av_frame_free(ptr noundef %78)
  %79 = load ptr, ptr %2, align 8, !tbaa !22
  %80 = getelementptr inbounds nuw %struct.ATempoContext, ptr %79, i32 0, i32 25
  store ptr null, ptr %80, align 8, !tbaa !56
  %81 = load ptr, ptr %2, align 8, !tbaa !22
  %82 = getelementptr inbounds nuw %struct.ATempoContext, ptr %81, i32 0, i32 26
  store ptr null, ptr %82, align 8, !tbaa !57
  %83 = load ptr, ptr %2, align 8, !tbaa !22
  %84 = getelementptr inbounds nuw %struct.ATempoContext, ptr %83, i32 0, i32 27
  store i64 0, ptr %84, align 8, !tbaa !60
  %85 = load ptr, ptr %2, align 8, !tbaa !22
  %86 = getelementptr inbounds nuw %struct.ATempoContext, ptr %85, i32 0, i32 28
  store i64 0, ptr %86, align 8, !tbaa !72
  ret void
}

; Function Attrs: nounwind uwtable
define internal void @yae_release_buffers(ptr noundef %0) #1 {
  %2 = alloca ptr, align 8
  store ptr %0, ptr %2, align 8, !tbaa !22
  %3 = load ptr, ptr %2, align 8, !tbaa !22
  call void @yae_clear(ptr noundef %3)
  %4 = load ptr, ptr %2, align 8, !tbaa !22
  %5 = getelementptr inbounds nuw %struct.ATempoContext, ptr %4, i32 0, i32 15
  %6 = getelementptr inbounds [2 x %struct.AudioFragment], ptr %5, i64 0, i64 0
  %7 = getelementptr inbounds nuw %struct.AudioFragment, ptr %6, i32 0, i32 1
  call void @av_freep(ptr noundef %7)
  %8 = load ptr, ptr %2, align 8, !tbaa !22
  %9 = getelementptr inbounds nuw %struct.ATempoContext, ptr %8, i32 0, i32 15
  %10 = getelementptr inbounds [2 x %struct.AudioFragment], ptr %9, i64 0, i64 1
  %11 = getelementptr inbounds nuw %struct.AudioFragment, ptr %10, i32 0, i32 1
  call void @av_freep(ptr noundef %11)
  %12 = load ptr, ptr %2, align 8, !tbaa !22
  %13 = getelementptr inbounds nuw %struct.ATempoContext, ptr %12, i32 0, i32 15
  %14 = getelementptr inbounds [2 x %struct.AudioFragment], ptr %13, i64 0, i64 0
  %15 = getelementptr inbounds nuw %struct.AudioFragment, ptr %14, i32 0, i32 3
  call void @av_freep(ptr noundef %15)
  %16 = load ptr, ptr %2, align 8, !tbaa !22
  %17 = getelementptr inbounds nuw %struct.ATempoContext, ptr %16, i32 0, i32 15
  %18 = getelementptr inbounds [2 x %struct.AudioFragment], ptr %17, i64 0, i64 1
  %19 = getelementptr inbounds nuw %struct.AudioFragment, ptr %18, i32 0, i32 3
  call void @av_freep(ptr noundef %19)
  %20 = load ptr, ptr %2, align 8, !tbaa !22
  %21 = getelementptr inbounds nuw %struct.ATempoContext, ptr %20, i32 0, i32 15
  %22 = getelementptr inbounds [2 x %struct.AudioFragment], ptr %21, i64 0, i64 0
  %23 = getelementptr inbounds nuw %struct.AudioFragment, ptr %22, i32 0, i32 4
  call void @av_freep(ptr noundef %23)
  %24 = load ptr, ptr %2, align 8, !tbaa !22
  %25 = getelementptr inbounds nuw %struct.ATempoContext, ptr %24, i32 0, i32 15
  %26 = getelementptr inbounds [2 x %struct.AudioFragment], ptr %25, i64 0, i64 1
  %27 = getelementptr inbounds nuw %struct.AudioFragment, ptr %26, i32 0, i32 4
  call void @av_freep(ptr noundef %27)
  %28 = load ptr, ptr %2, align 8, !tbaa !22
  %29 = getelementptr inbounds nuw %struct.ATempoContext, ptr %28, i32 0, i32 1
  call void @av_freep(ptr noundef %29)
  %30 = load ptr, ptr %2, align 8, !tbaa !22
  %31 = getelementptr inbounds nuw %struct.ATempoContext, ptr %30, i32 0, i32 12
  call void @av_freep(ptr noundef %31)
  %32 = load ptr, ptr %2, align 8, !tbaa !22
  %33 = getelementptr inbounds nuw %struct.ATempoContext, ptr %32, i32 0, i32 22
  call void @av_freep(ptr noundef %33)
  %34 = load ptr, ptr %2, align 8, !tbaa !22
  %35 = getelementptr inbounds nuw %struct.ATempoContext, ptr %34, i32 0, i32 23
  call void @av_freep(ptr noundef %35)
  %36 = load ptr, ptr %2, align 8, !tbaa !22
  %37 = getelementptr inbounds nuw %struct.ATempoContext, ptr %36, i32 0, i32 18
  call void @av_tx_uninit(ptr noundef %37)
  %38 = load ptr, ptr %2, align 8, !tbaa !22
  %39 = getelementptr inbounds nuw %struct.ATempoContext, ptr %38, i32 0, i32 19
  call void @av_tx_uninit(ptr noundef %39)
  ret void
}