; Function Attrs: nounwind uwtable
define internal fastcc void @yae_release_buffers(ptr noundef initializes((20, 56), (88, 120), (128, 132), (152, 168), (176, 180), (200, 212)) %0) unnamed_addr #2 {
  %2 = getelementptr inbounds nuw i8, ptr %0, i64 20
  store i32 0, ptr %2, align 4, !tbaa !90
  %3 = getelementptr inbounds nuw i8, ptr %0, i64 24
  store i32 0, ptr %3, align 8, !tbaa !91
  %4 = getelementptr inbounds nuw i8, ptr %0, i64 28
  store i32 0, ptr %4, align 4, !tbaa !89
  %5 = getelementptr inbounds nuw i8, ptr %0, i64 200
  store i64 0, ptr %5, align 8, !tbaa !28
  %6 = getelementptr inbounds nuw i8, ptr %0, i64 208
  store i32 0, ptr %6, align 8, !tbaa !27
  %7 = getelementptr inbounds nuw i8, ptr %0, i64 48
  store i64 -9223372036854775808, ptr %7, align 8, !tbaa !52
  %8 = getelementptr inbounds nuw i8, ptr %0, i64 32
  %9 = getelementptr inbounds nuw i8, ptr %0, i64 88
  %10 = getelementptr inbounds nuw i8, ptr %0, i64 104
  %11 = getelementptr inbounds nuw i8, ptr %0, i64 112
  %12 = getelementptr inbounds nuw i8, ptr %0, i64 128
  store i32 0, ptr %12, align 8, !tbaa !62
  %13 = getelementptr inbounds nuw i8, ptr %0, i64 152
  %14 = getelementptr inbounds nuw i8, ptr %0, i64 176
  store i32 0, ptr %14, align 8, !tbaa !62
  %15 = getelementptr inbounds nuw i8, ptr %0, i64 68
  tail call void @llvm.memset.p0.i64(ptr noundef nonnull align 8 dereferenceable(16) %8, i8 0, i64 16, i1 false)
  tail call void @llvm.memset.p0.i64(ptr noundef nonnull align 8 dereferenceable(16) %9, i8 0, i64 16, i1 false)
  tail call void @llvm.memset.p0.i64(ptr noundef nonnull align 8 dereferenceable(16) %13, i8 0, i64 16, i1 false)
  %16 = load i32, ptr %15, align 4, !tbaa !30
  %.neg.i = sdiv i32 %16, -2
  %17 = sext i32 %.neg.i to i64
  store i64 %17, ptr %10, align 8, !tbaa !29
  store i64 %17, ptr %11, align 8, !tbaa !29
  %18 = getelementptr inbounds nuw i8, ptr %0, i64 264
  tail call void @av_frame_free(ptr noundef nonnull %18) #12
  %19 = getelementptr inbounds nuw i8, ptr %0, i64 272
  tail call void @llvm.memset.p0.i64(ptr noundef nonnull align 8 dereferenceable(32) %19, i8 0, i64 32, i1 false)
  %20 = getelementptr inbounds nuw i8, ptr %0, i64 120
  tail call void @av_freep(ptr noundef nonnull %20) #12
  %21 = getelementptr inbounds nuw i8, ptr %0, i64 168
  tail call void @av_freep(ptr noundef nonnull %21) #12
  %22 = getelementptr inbounds nuw i8, ptr %0, i64 136
  tail call void @av_freep(ptr noundef nonnull %22) #12
  %23 = getelementptr inbounds nuw i8, ptr %0, i64 184
  tail call void @av_freep(ptr noundef nonnull %23) #12
  %24 = getelementptr inbounds nuw i8, ptr %0, i64 144
  tail call void @av_freep(ptr noundef nonnull %24) #12
  %25 = getelementptr inbounds nuw i8, ptr %0, i64 192
  tail call void @av_freep(ptr noundef nonnull %25) #12
  %26 = getelementptr inbounds nuw i8, ptr %0, i64 8
  tail call void @av_freep(ptr noundef nonnull %26) #12
  %27 = getelementptr inbounds nuw i8, ptr %0, i64 72
  tail call void @av_freep(ptr noundef nonnull %27) #12
  %28 = getelementptr inbounds nuw i8, ptr %0, i64 248
  tail call void @av_freep(ptr noundef nonnull %28) #12
  %29 = getelementptr inbounds nuw i8, ptr %0, i64 256
  tail call void @av_freep(ptr noundef nonnull %29) #12
  %30 = getelementptr inbounds nuw i8, ptr %0, i64 216
  tail call void @av_tx_uninit(ptr noundef nonnull %30) #12
  %31 = getelementptr inbounds nuw i8, ptr %0, i64 224
  tail call void @av_tx_uninit(ptr noundef nonnull %31) #12
  ret void
}